; Function Attrs: mustprogress nounwind uwtable
define hidden noundef zeroext i1 @_ZN21java_lang_ClassLoader26is_reflection_class_loaderEP7oopDesc(ptr noundef readonly %0) local_unnamed_addr #0 align 2 {
  %.not = icmp eq ptr %0, null
  br i1 %.not, label %_ZNK7oopDesc4is_aEP5Klass.exit, label %2

2:                                                ; preds = %1
  %3 = load ptr, ptr getelementptr inbounds (i8, ptr @_ZN9vmClasses8_klassesE, i64 416), align 8
  %.not7 = icmp eq ptr %3, null
  br i1 %.not7, label %_ZNK7oopDesc4is_aEP5Klass.exit, label %4

4:                                                ; preds = %2
  %5 = load i8, ptr @UseCompressedClassPointers, align 1
  %6 = trunc i8 %5 to i1
  %7 = getelementptr inbounds i8, ptr %0, i64 8
  br i1 %6, label %8, label %18

8:                                                ; preds = %4
  %9 = load i32, ptr %7, align 8
  %10 = load ptr, ptr @_ZN23CompressedKlassPointers5_baseE, align 8
  %11 = load i32, ptr @_ZN23CompressedKlassPointers6_shiftE, align 4
  %12 = ptrtoint ptr %10 to i64
  %13 = zext i32 %9 to i64
  %14 = zext nneg i32 %11 to i64
  %15 = shl i64 %13, %14
  %16 = add i64 %15, %12
  %17 = inttoptr i64 %16 to ptr
  br label %_ZNK7oopDesc5klassEv.exit.i

18:                                               ; preds = %4
  %19 = load ptr, ptr %7, align 8
  br label %_ZNK7oopDesc5klassEv.exit.i

_ZNK7oopDesc5klassEv.exit.i:                      ; preds = %18, %8
  %.0.i.i = phi ptr [ %17, %8 ], [ %19, %18 ]
  %20 = getelementptr inbounds i8, ptr %3, i64 20
  %21 = load i32, ptr %20, align 4
  %22 = zext i32 %21 to i64
  %23 = getelementptr inbounds i8, ptr %.0.i.i, i64 %22
  %24 = load ptr, ptr %23, align 8
  %25 = icmp eq ptr %24, %3
  br i1 %25, label %_ZNK7oopDesc4is_aEP5Klass.exit, label %26

26:                                               ; preds = %_ZNK7oopDesc5klassEv.exit.i
  %.not.i.i = icmp eq i32 %21, 32
  br i1 %.not.i.i, label %27, label %_ZNK7oopDesc4is_aEP5Klass.exit

27:                                               ; preds = %26
  %28 = tail call noundef zeroext i1 @_ZNK5Klass23search_secondary_supersEPS_(ptr noundef nonnull align 8 dereferenceable(196) %.0.i.i, ptr noundef nonnull %3) #19
  br label %_ZNK7oopDesc4is_aEP5Klass.exit

_ZNK7oopDesc4is_aEP5Klass.exit:                   ; preds = %27, %26, %_ZNK7oopDesc5klassEv.exit.i, %1, %2
  %.0 = phi i1 [ false, %2 ], [ false, %1 ], [ %28, %27 ], [ true, %_ZNK7oopDesc5klassEv.exit.i ], [ false, %26 ]
  ret i1 %.0
}